; Function Attrs: mustprogress uwtable
define noundef ptr @_ZN3re29Prefilter4Info5QuestEPS1_(ptr noundef %a) local_unnamed_addr #0 align 2 personality ptr @__gxx_personality_v0 {
entry:
  %call = tail call noalias noundef nonnull dereferenceable(64) ptr @_Znwm(i64 noundef 64) #17
  invoke void @_ZN3re29Prefilter4InfoC1Ev(ptr noundef nonnull align 8 dereferenceable(64) %call)
          to label %invoke.cont unwind label %lpad

invoke.cont:                                      ; preds = %entry
  %is_exact_ = getelementptr inbounds i8, ptr %call, i64 48
  store i8 0, ptr %is_exact_, align 8
  %call1 = tail call noalias noundef nonnull dereferenceable(56) ptr @_Znwm(i64 noundef 56) #17
  invoke void @_ZN3re29PrefilterC1ENS0_2OpE(ptr noundef nonnull align 8 dereferenceable(52) %call1, i32 noundef 0)
          to label %invoke.cont3 unwind label %lpad2

invoke.cont3:                                     ; preds = %invoke.cont
  %match_ = getelementptr inbounds i8, ptr %call, i64 56
  store ptr %call1, ptr %match_, align 8
  %isnull = icmp eq ptr %a, null
  br i1 %isnull, label %delete.end, label %delete.notnull

delete.notnull:                                   ; preds = %invoke.cont3
  tail call void @_ZN3re29Prefilter4InfoD1Ev(ptr noundef nonnull align 8 dereferenceable(64) %a) #16
  tail call void @_ZdlPv(ptr noundef nonnull %a) #18
  br label %delete.end

delete.end:                                       ; preds = %delete.notnull, %invoke.cont3
  ret ptr %call

lpad:                                             ; preds = %entry
  %0 = landingpad { ptr, i32 }
          cleanup
  br label %eh.resume

lpad2:                                            ; preds = %invoke.cont
  %1 = landingpad { ptr, i32 }
          cleanup
  br label %eh.resume

eh.resume:                                        ; preds = %lpad2, %lpad
  %call1.sink = phi ptr [ %call1, %lpad2 ], [ %call, %lpad ]
  %.pn = phi { ptr, i32 } [ %1, %lpad2 ], [ %0, %lpad ]
  tail call void @_ZdlPv(ptr noundef nonnull %call1.sink) #18
  resume { ptr, i32 } %.pn
}